target datalayout = "e-m:e-p270:32:32-p271:32:32-p272:64:64-i64:64-i128:128-f80:128-n8:16:32:64-S128"
target triple = "x86_64-pc-linux-gnu"

@_ZN4base15kWhitespaceWideE = external constant [0 x i32], align 4

; Function Attrs: mustprogress nounwind uwtable
define noundef zeroext i1 @_ZN4base19IsUnicodeWhitespaceEw(i32 noundef signext %0) #0 {
  %2 = alloca i1, align 1
  %3 = alloca i32, align 4
  %4 = alloca ptr, align 8
  %5 = alloca i32, align 4
  store i32 %0, ptr %3, align 4, !tbaa !8
  call void @llvm.lifetime.start.p0(i64 8, ptr %4) #17
  store ptr @_ZN4base15kWhitespaceWideE, ptr %4, align 8, !tbaa !3
  br label %6

6:                                                ; preds = %18, %1
  %7 = load ptr, ptr %4, align 8, !tbaa !3
  %8 = load i32, ptr %7, align 4, !tbaa !8
  %9 = icmp ne i32 %8, 0
  br i1 %9, label %11, label %10

10:                                               ; preds = %6
  store i32 2, ptr %5, align 4
  br label %21

11:                                               ; preds = %6
  %12 = load ptr, ptr %4, align 8, !tbaa !3
  %13 = load i32, ptr %12, align 4, !tbaa !8
  %14 = load i32, ptr %3, align 4, !tbaa !8
  %15 = icmp eq i32 %13, %14
  br i1 %15, label %16, label %17

16:                                               ; preds = %11
  store i1 true, ptr %2, align 1
  store i32 1, ptr %5, align 4
  br label %21

17:                                               ; preds = %11
  br label %18

18:                                               ; preds = %17
  %19 = load ptr, ptr %4, align 8, !tbaa !3
  %20 = getelementptr inbounds nuw i32, ptr %19, i32 1
  store ptr %20, ptr %4, align 8, !tbaa !3
  br label %6, !llvm.loop !88

21:                                               ; preds = %16, %10
  call void @llvm.lifetime.end.p0(i64 8, ptr %4) #17
  %22 = load i32, ptr %5, align 4
  switch i32 %22, label %26 [
    i32 2, label %23
    i32 1, label %24
  ]

23:                                               ; preds = %21
  store i1 false, ptr %2, align 1
  br label %24

24:                                               ; preds = %23, %21
  %25 = load i1, ptr %2, align 1
  ret i1 %25

26:                                               ; preds = %21
  unreachable
}