; Function Attrs: mustprogress nofree norecurse nosync nounwind willreturn memory(none) uwtable
define noundef zeroext i1 @_ZN4base19IsUnicodeWhitespaceEw(i32 noundef signext %0) local_unnamed_addr #8 {
  br label %2

2:                                                ; preds = %2, %1
  %.05 = phi ptr [ @_ZN4base15kWhitespaceWideE, %1 ], [ %5, %2 ]
  %3 = load i32, ptr %.05, align 4, !tbaa !3
  %.not = icmp ne i32 %3, 0
  %4 = icmp ne i32 %3, %0
  %or.cond.not = and i1 %4, %.not
  %5 = getelementptr inbounds nuw i8, ptr %.05, i64 4
  br i1 %or.cond.not, label %2, label %6, !llvm.loop !77

6:                                                ; preds = %2
  ret i1 %.not
}